target datalayout = "e-m:e-p270:32:32-p271:32:32-p272:64:64-i64:64-i128:128-f80:128-n8:16:32:64-S128"
target triple = "x86_64-pc-linux-gnu"

@.str.96 = private unnamed_addr constant [10 x i8] c"snmp.data\00", align 1
@.str.490 = private unnamed_addr constant [14 x i8] c"SNMP Commands\00", align 1
@.str.491 = private unnamed_addr constant [10 x i8] c"<unknown>\00", align 1

; Function Attrs: nounwind uwtable
define internal void @snmpstat_init(ptr noundef %0, ptr noundef %1) #0 {
  %3 = alloca ptr, align 8
  %4 = alloca ptr, align 8
  %5 = alloca ptr, align 8
  %6 = alloca i32, align 4
  store ptr %0, ptr %3, align 8
  store ptr %1, ptr %4, align 8
  %7 = load ptr, ptr %4, align 8
  %8 = call ptr @init_srt_table(ptr noundef @.str.490, ptr noundef null, ptr noundef %7, i32 noundef 8, ptr noundef null, ptr noundef @.str.96, ptr noundef null)
  store ptr %8, ptr %5, align 8
  store i32 0, ptr %6, align 4
  br label %9

9:                                                ; preds = %17, %2
  %10 = load i32, ptr %6, align 4
  %11 = icmp ult i32 %10, 8
  br i1 %11, label %12, label %20

12:                                               ; preds = %9
  %13 = load ptr, ptr %5, align 8
  %14 = load i32, ptr %6, align 4
  %15 = load i32, ptr %6, align 4
  %16 = call ptr @val_to_str_const(i32 noundef %15, ptr noundef @snmp_procedure_names, ptr noundef @.str.491)
  call void @init_srt_table_row(ptr noundef %13, i32 noundef %14, ptr noundef %16)
  br label %17

17:                                               ; preds = %12
  %18 = load i32, ptr %6, align 4
  %19 = add i32 %18, 1
  store i32 %19, ptr %6, align 4
  br label %9, !llvm.loop !12

20:                                               ; preds = %9
  ret void
}