; Function Attrs: nounwind uwtable
define internal void @snmpstat_init(ptr readnone captures(none) %0, ptr noundef %1) #0 {
  %3 = tail call ptr @init_srt_table(ptr noundef nonnull @.str.490, ptr noundef null, ptr noundef %1, i32 noundef 8, ptr noundef null, ptr noundef nonnull @.str.96, ptr noundef null) #11
  br label %4

4:                                                ; preds = %2, %4
  %.05 = phi i32 [ 0, %2 ], [ %6, %4 ]
  %5 = tail call ptr @val_to_str_const(i32 noundef %.05, ptr noundef nonnull @snmp_procedure_names, ptr noundef nonnull @.str.491) #11
  tail call void @init_srt_table_row(ptr noundef %3, i32 noundef %.05, ptr noundef %5) #11
  %6 = add nuw nsw i32 %.05, 1
  %exitcond.not = icmp eq i32 %6, 8
  br i1 %exitcond.not, label %7, label %4, !llvm.loop !12

7:                                                ; preds = %4
  ret void
}